target datalayout = "e-m:e-p270:32:32-p271:32:32-p272:64:64-i64:64-i128:128-f80:128-n8:16:32:64-S128"
target triple = "x86_64-pc-linux-gnu"

%class.QString = type { %struct.QArrayDataPointer }
%struct.QArrayDataPointer = type { ptr, ptr, i64 }
%class.VoipCallsDialog = type { %class.WiresharkDialog.base, i8, ptr, ptr, ptr, ptr, ptr, %struct._voip_calls_tapinfo, ptr, ptr, ptr, ptr, ptr, i8, ptr }
%class.WiresharkDialog.base = type <{ %class.GeometryStateDialog, ptr, i8, [7 x i8], %class.QString, %class.QList, i32, i8 }>
%class.GeometryStateDialog = type { %class.QDialog, %class.QString }
%class.QDialog = type { %class.QWidget }
%class.QWidget = type { %class.QObject, %class.QPaintDevice.base, ptr }
%class.QObject = type { ptr, %class.QScopedPointer }
%class.QScopedPointer = type { ptr }
%class.QPaintDevice.base = type <{ ptr, i16 }>
%class.QList = type { %struct.QArrayDataPointer.0 }
%struct.QArrayDataPointer.0 = type { ptr, ptr, i64 }
%struct._voip_calls_tapinfo = type { ptr, ptr, ptr, ptr, i32, ptr, [1 x ptr], i32, ptr, i32, i32, i32, ptr, ptr, i32, ptr, i32, i8, i32, ptr, i32, i32, i32, i8, i32, ptr, ptr, ptr, i8, i32, i32, i32, i16, i32, i32, i32, i32, i32, i32, i32, i32, i32 }
%class.Ui_VoipCallsDialog = type { ptr, ptr, ptr, ptr, ptr, ptr, ptr, ptr, ptr, ptr, ptr, ptr, ptr, ptr, ptr, ptr, ptr }
%class.QList.12 = type { %struct.QArrayDataPointer.15 }
%struct.QArrayDataPointer.15 = type { ptr, ptr, i64 }
%class.QModelIndex = type { i32, i32, i64, ptr }
%class.QList.8 = type { %struct.QArrayDataPointer.11 }
%struct.QArrayDataPointer.11 = type { ptr, ptr, i64 }
%class.QBasicAtomicInteger = type { %"struct.std::atomic" }
%"struct.std::atomic" = type { %"struct.std::__atomic_base" }
%"struct.std::__atomic_base" = type { i32 }
%struct.QArrayData = type { %class.QBasicAtomicInteger, %class.QFlags.42, i64 }
%class.QFlags.42 = type { i32 }

; Function Attrs: mustprogress nounwind uwtable
define linkonce_odr noundef i32 @_ZNSt13__atomic_baseIiEmmEv(ptr noundef nonnull align 4 dereferenceable(4) %0) #5 comdat align 2 {
  %2 = alloca ptr, align 8
  %3 = alloca i32, align 4
  %4 = alloca i32, align 4
  store ptr %0, ptr %2, align 8
  %5 = load ptr, ptr %2, align 8
  %6 = getelementptr inbounds %"struct.std::__atomic_base", ptr %5, i32 0, i32 0
  store i32 1, ptr %3, align 4
  %7 = load i32, ptr %3, align 4
  %8 = atomicrmw sub ptr %6, i32 %7 seq_cst, align 4
  %9 = sub i32 %8, %7
  store i32 %9, ptr %4, align 4
  %10 = load i32, ptr %4, align 4
  ret i32 %10
}

; Function Attrs: mustprogress nounwind uwtable
define linkonce_odr void @_ZNSt12_Destroy_auxILb1EE9__destroyIP11QModelIndexEEvT_S4_(ptr noundef %0, ptr noundef %1) #5 comdat align 2 {
  %3 = alloca ptr, align 8
  %4 = alloca ptr, align 8
  store ptr %0, ptr %3, align 8
  store ptr %1, ptr %4, align 8
  ret void
}

; Function Attrs: mustprogress nounwind uwtable
define linkonce_odr noundef zeroext i1 @_ZN10QAtomicOpsIiE5derefIiEEbRSt6atomicIT_E(ptr noundef nonnull align 4 dereferenceable(4) %0) #5 comdat align 2 {
  %2 = alloca ptr, align 8
  store ptr %0, ptr %2, align 8
  %3 = load ptr, ptr %2, align 8
  %4 = call noundef i32 @_ZNSt13__atomic_baseIiEmmEv(ptr noundef nonnull align 4 dereferenceable(4) %3) #17
  %5 = icmp ne i32 %4, 0
  ret i1 %5
}

; Function Attrs: mustprogress uwtable
define linkonce_odr void @_ZSt8_DestroyIP11QModelIndexEvT_S2_(ptr noundef %0, ptr noundef %1) #0 comdat {
  %3 = alloca ptr, align 8
  %4 = alloca ptr, align 8
  store ptr %0, ptr %3, align 8
  store ptr %1, ptr %4, align 8
  %5 = load ptr, ptr %3, align 8
  %6 = load ptr, ptr %4, align 8
  call void @_ZNSt12_Destroy_auxILb1EE9__destroyIP11QModelIndexEEvT_S4_(ptr noundef %5, ptr noundef %6)
  ret void
}

; Function Attrs: mustprogress nounwind uwtable
define linkonce_odr noundef ptr @_ZN17QArrayDataPointerI11QModelIndexE4dataEv(ptr noundef nonnull align 8 dereferenceable(24) %0) #5 comdat align 2 {
  %2 = alloca ptr, align 8
  store ptr %0, ptr %2, align 8
  %3 = load ptr, ptr %2, align 8
  %4 = getelementptr inbounds %struct.QArrayDataPointer.11, ptr %3, i32 0, i32 1
  %5 = load ptr, ptr %4, align 8
  ret ptr %5
}

; Function Attrs: mustprogress nounwind uwtable
define linkonce_odr noundef zeroext i1 @_ZN19QBasicAtomicIntegerIiE5derefEv(ptr noundef nonnull align 4 dereferenceable(4) %0) #5 comdat align 2 {
  %2 = alloca ptr, align 8
  store ptr %0, ptr %2, align 8
  %3 = load ptr, ptr %2, align 8
  %4 = getelementptr inbounds %class.QBasicAtomicInteger, ptr %3, i32 0, i32 0
  %5 = call noundef zeroext i1 @_ZN10QAtomicOpsIiE5derefIiEEbRSt6atomicIT_E(ptr noundef nonnull align 4 dereferenceable(4) %4) #17
  ret i1 %5
}

; Function Attrs: mustprogress uwtable
define linkonce_odr void @_ZSt7destroyIP11QModelIndexEvT_S2_(ptr noundef %0, ptr noundef %1) #0 comdat {
  %3 = alloca ptr, align 8
  %4 = alloca ptr, align 8
  store ptr %0, ptr %3, align 8
  store ptr %1, ptr %4, align 8
  %5 = load ptr, ptr %3, align 8
  %6 = load ptr, ptr %4, align 8
  call void @_ZSt8_DestroyIP11QModelIndexEvT_S2_(ptr noundef %5, ptr noundef %6)
  ret void
}

; Function Attrs: mustprogress nounwind uwtable
define linkonce_odr noundef ptr @_ZN17QArrayDataPointerI11QModelIndexE3endEv(ptr noundef nonnull align 8 dereferenceable(24) %0) #5 comdat align 2 {
  %2 = alloca ptr, align 8
  store ptr %0, ptr %2, align 8
  %3 = load ptr, ptr %2, align 8
  %4 = call noundef ptr @_ZN17QArrayDataPointerI11QModelIndexE4dataEv(ptr noundef nonnull align 8 dereferenceable(24) %3) #17
  %5 = getelementptr inbounds %struct.QArrayDataPointer.11, ptr %3, i32 0, i32 2
  %6 = load i64, ptr %5, align 8
  %7 = getelementptr %class.QModelIndex, ptr %4, i64 %6
  ret ptr %7
}

; Function Attrs: mustprogress nounwind uwtable
define linkonce_odr noundef ptr @_ZN17QArrayDataPointerI11QModelIndexE5beginEv(ptr noundef nonnull align 8 dereferenceable(24) %0) #5 comdat align 2 {
  %2 = alloca ptr, align 8
  store ptr %0, ptr %2, align 8
  %3 = load ptr, ptr %2, align 8
  %4 = call noundef ptr @_ZN17QArrayDataPointerI11QModelIndexE4dataEv(ptr noundef nonnull align 8 dereferenceable(24) %3) #17
  ret ptr %4
}

; Function Attrs: mustprogress nounwind uwtable
define linkonce_odr noundef zeroext i1 @_ZN10QArrayData5derefEv(ptr noundef nonnull align 8 dereferenceable(16) %0) #5 comdat align 2 {
  %2 = alloca ptr, align 8
  store ptr %0, ptr %2, align 8
  %3 = load ptr, ptr %2, align 8
  %4 = getelementptr inbounds %struct.QArrayData, ptr %3, i32 0, i32 0
  %5 = call noundef zeroext i1 @_ZN19QBasicAtomicIntegerIiE5derefEv(ptr noundef nonnull align 4 dereferenceable(4) %4) #17
  ret i1 %5
}

; Function Attrs: mustprogress nounwind uwtable
define linkonce_odr void @_ZN15QTypedArrayDataIP13_rtpstream_idE10deallocateEP10QArrayData(ptr noundef %0) #5 comdat align 2 {
  %2 = alloca ptr, align 8
  store ptr %0, ptr %2, align 8
  %3 = load ptr, ptr %2, align 8
  call void @_ZN10QArrayData10deallocateEPS_xx(ptr noundef %3, i64 noundef 8, i64 noundef 8) #17
  ret void
}

; Function Attrs: mustprogress nounwind uwtable
define linkonce_odr void @_ZN9QtPrivate12QPodArrayOpsIP13_rtpstream_idE10destroyAllEv(ptr noundef nonnull align 8 dereferenceable(24) %0) #5 comdat align 2 {
  %2 = alloca ptr, align 8
  store ptr %0, ptr %2, align 8
  ret void
}

; Function Attrs: mustprogress nounwind uwtable
define linkonce_odr noundef ptr @_ZN17QArrayDataPointerIP13_rtpstream_idEptEv(ptr noundef nonnull align 8 dereferenceable(24) %0) #5 comdat align 2 {
  %2 = alloca ptr, align 8
  store ptr %0, ptr %2, align 8
  %3 = load ptr, ptr %2, align 8
  ret ptr %3
}

; Function Attrs: mustprogress nounwind uwtable
define linkonce_odr noundef zeroext i1 @_ZN17QArrayDataPointerIP13_rtpstream_idE5derefEv(ptr noundef nonnull align 8 dereferenceable(24) %0) #5 comdat align 2 {
  %2 = alloca ptr, align 8
  store ptr %0, ptr %2, align 8
  %3 = load ptr, ptr %2, align 8
  %4 = getelementptr inbounds %struct.QArrayDataPointer.15, ptr %3, i32 0, i32 0
  %5 = load ptr, ptr %4, align 8
  %6 = icmp ne ptr %5, null
  br i1 %6, label %7, label %11

7:                                                ; preds = %1
  %8 = getelementptr inbounds %struct.QArrayDataPointer.15, ptr %3, i32 0, i32 0
  %9 = load ptr, ptr %8, align 8
  %10 = call noundef zeroext i1 @_ZN10QArrayData5derefEv(ptr noundef nonnull align 8 dereferenceable(16) %9) #17
  br label %11

11:                                               ; preds = %7, %1
  %12 = phi i1 [ true, %1 ], [ %10, %7 ]
  ret i1 %12
}

; Function Attrs: noreturn nounwind uwtable
define linkonce_odr hidden void @__clang_call_terminate(ptr noundef %0) #7 comdat {
  %2 = call ptr @__cxa_begin_catch(ptr %0) #17
  call void @_ZSt9terminatev() #19
  unreachable
}

; Function Attrs: mustprogress nounwind uwtable
define linkonce_odr void @_ZN15QTypedArrayDataI11QModelIndexE10deallocateEP10QArrayData(ptr noundef %0) #5 comdat align 2 {
  %2 = alloca ptr, align 8
  store ptr %0, ptr %2, align 8
  %3 = load ptr, ptr %2, align 8
  call void @_ZN10QArrayData10deallocateEPS_xx(ptr noundef %3, i64 noundef 24, i64 noundef 8) #17
  ret void
}

; Function Attrs: mustprogress uwtable
define linkonce_odr void @_ZN9QtPrivate16QGenericArrayOpsI11QModelIndexE10destroyAllEv(ptr noundef nonnull align 8 dereferenceable(24) %0) #0 comdat align 2 {
  %2 = alloca ptr, align 8
  store ptr %0, ptr %2, align 8
  %3 = load ptr, ptr %2, align 8
  %4 = call noundef ptr @_ZN17QArrayDataPointerI11QModelIndexE5beginEv(ptr noundef nonnull align 8 dereferenceable(24) %3) #17
  %5 = call noundef ptr @_ZN17QArrayDataPointerI11QModelIndexE3endEv(ptr noundef nonnull align 8 dereferenceable(24) %3) #17
  call void @_ZSt7destroyIP11QModelIndexEvT_S2_(ptr noundef %4, ptr noundef %5)
  ret void
}

; Function Attrs: mustprogress nounwind uwtable
define linkonce_odr noundef ptr @_ZN17QArrayDataPointerI11QModelIndexEptEv(ptr noundef nonnull align 8 dereferenceable(24) %0) #5 comdat align 2 {
  %2 = alloca ptr, align 8
  store ptr %0, ptr %2, align 8
  %3 = load ptr, ptr %2, align 8
  ret ptr %3
}

; Function Attrs: mustprogress nounwind uwtable
define linkonce_odr noundef zeroext i1 @_ZN17QArrayDataPointerI11QModelIndexE5derefEv(ptr noundef nonnull align 8 dereferenceable(24) %0) #5 comdat align 2 {
  %2 = alloca ptr, align 8
  store ptr %0, ptr %2, align 8
  %3 = load ptr, ptr %2, align 8
  %4 = getelementptr inbounds %struct.QArrayDataPointer.11, ptr %3, i32 0, i32 0
  %5 = load ptr, ptr %4, align 8
  %6 = icmp ne ptr %5, null
  br i1 %6, label %7, label %11

7:                                                ; preds = %1
  %8 = getelementptr inbounds %struct.QArrayDataPointer.11, ptr %3, i32 0, i32 0
  %9 = load ptr, ptr %8, align 8
  %10 = call noundef zeroext i1 @_ZN10QArrayData5derefEv(ptr noundef nonnull align 8 dereferenceable(16) %9) #17
  br label %11

11:                                               ; preds = %7, %1
  %12 = phi i1 [ true, %1 ], [ %10, %7 ]
  ret i1 %12
}

; Function Attrs: mustprogress nounwind uwtable
define linkonce_odr noundef ptr @_ZNK17QArrayDataPointerI11QModelIndexEptEv(ptr noundef nonnull align 8 dereferenceable(24) %0) #5 comdat align 2 {
  %2 = alloca ptr, align 8
  store ptr %0, ptr %2, align 8
  %3 = load ptr, ptr %2, align 8
  ret ptr %3
}

; Function Attrs: mustprogress nounwind uwtable
define linkonce_odr void @_ZN17QArrayDataPointerIP13_rtpstream_idED2Ev(ptr noundef nonnull align 8 dereferenceable(24) %0) unnamed_addr #5 comdat align 2 {
  %2 = alloca ptr, align 8
  store ptr %0, ptr %2, align 8
  %3 = load ptr, ptr %2, align 8
  %4 = call noundef zeroext i1 @_ZN17QArrayDataPointerIP13_rtpstream_idE5derefEv(ptr noundef nonnull align 8 dereferenceable(24) %3) #17
  br i1 %4, label %9, label %5

5:                                                ; preds = %1
  %6 = call noundef ptr @_ZN17QArrayDataPointerIP13_rtpstream_idEptEv(ptr noundef nonnull align 8 dereferenceable(24) %3) #17
  call void @_ZN9QtPrivate12QPodArrayOpsIP13_rtpstream_idE10destroyAllEv(ptr noundef nonnull align 8 dereferenceable(24) %6) #17
  %7 = getelementptr inbounds %struct.QArrayDataPointer.15, ptr %3, i32 0, i32 0
  %8 = load ptr, ptr %7, align 8
  call void @_ZN15QTypedArrayDataIP13_rtpstream_idE10deallocateEP10QArrayData(ptr noundef %8) #17
  br label %9

9:                                                ; preds = %5, %1
  ret void
}

; Function Attrs: mustprogress nounwind uwtable
define linkonce_odr void @_ZN17QArrayDataPointerI11QModelIndexED2Ev(ptr noundef nonnull align 8 dereferenceable(24) %0) unnamed_addr #5 comdat align 2 personality ptr @__gxx_personality_v0 {
  %2 = alloca ptr, align 8
  store ptr %0, ptr %2, align 8
  %3 = load ptr, ptr %2, align 8
  %4 = call noundef zeroext i1 @_ZN17QArrayDataPointerI11QModelIndexE5derefEv(ptr noundef nonnull align 8 dereferenceable(24) %3) #17
  br i1 %4, label %10, label %5

5:                                                ; preds = %1
  %6 = call noundef ptr @_ZN17QArrayDataPointerI11QModelIndexEptEv(ptr noundef nonnull align 8 dereferenceable(24) %3) #17
  invoke void @_ZN9QtPrivate16QGenericArrayOpsI11QModelIndexE10destroyAllEv(ptr noundef nonnull align 8 dereferenceable(24) %6)
          to label %7 unwind label %11

7:                                                ; preds = %5
  %8 = getelementptr inbounds %struct.QArrayDataPointer.11, ptr %3, i32 0, i32 0
  %9 = load ptr, ptr %8, align 8
  call void @_ZN15QTypedArrayDataI11QModelIndexE10deallocateEP10QArrayData(ptr noundef %9) #17
  br label %10

10:                                               ; preds = %7, %1
  ret void

11:                                               ; preds = %5
  %12 = landingpad { ptr, i32 }
          catch ptr null
  %13 = extractvalue { ptr, i32 } %12, 0
  call void @__clang_call_terminate(ptr %13) #19
  unreachable
}

; Function Attrs: mustprogress nounwind uwtable
define linkonce_odr noundef i64 @_ZNK5QListI11QModelIndexE4sizeEv(ptr noundef nonnull align 8 dereferenceable(24) %0) #5 comdat align 2 {
  %2 = alloca ptr, align 8
  store ptr %0, ptr %2, align 8
  %3 = load ptr, ptr %2, align 8
  %4 = getelementptr inbounds %class.QList.8, ptr %3, i32 0, i32 0
  %5 = call noundef ptr @_ZNK17QArrayDataPointerI11QModelIndexEptEv(ptr noundef nonnull align 8 dereferenceable(24) %4) #17
  %6 = getelementptr inbounds %struct.QArrayDataPointer.11, ptr %5, i32 0, i32 2
  %7 = load i64, ptr %6, align 8
  ret i64 %7
}

; Function Attrs: mustprogress nounwind uwtable
define linkonce_odr void @_ZN5QListIP13_rtpstream_idED2Ev(ptr noundef nonnull align 8 dereferenceable(24) %0) unnamed_addr #5 comdat align 2 {
  %2 = alloca ptr, align 8
  store ptr %0, ptr %2, align 8
  %3 = load ptr, ptr %2, align 8
  %4 = getelementptr inbounds %class.QList.12, ptr %3, i32 0, i32 0
  call void @_ZN17QArrayDataPointerIP13_rtpstream_idED2Ev(ptr noundef nonnull align 8 dereferenceable(24) %4) #17
  ret void
}

; Function Attrs: mustprogress nounwind uwtable
define linkonce_odr void @_ZN5QListI11QModelIndexED2Ev(ptr noundef nonnull align 8 dereferenceable(24) %0) unnamed_addr #5 comdat align 2 {
  %2 = alloca ptr, align 8
  store ptr %0, ptr %2, align 8
  %3 = load ptr, ptr %2, align 8
  %4 = getelementptr inbounds %class.QList.8, ptr %3, i32 0, i32 0
  call void @_ZN17QArrayDataPointerI11QModelIndexED2Ev(ptr noundef nonnull align 8 dereferenceable(24) %4) #17
  ret void
}

; Function Attrs: mustprogress nounwind uwtable
define linkonce_odr noundef i64 @_ZNK5QListI11QModelIndexE5countEv(ptr noundef nonnull align 8 dereferenceable(24) %0) #5 comdat align 2 {
  %2 = alloca ptr, align 8
  store ptr %0, ptr %2, align 8
  %3 = load ptr, ptr %2, align 8
  %4 = call noundef i64 @_ZNK5QListI11QModelIndexE4sizeEv(ptr noundef nonnull align 8 dereferenceable(24) %3) #17
  ret i64 %4
}

; Function Attrs: mustprogress uwtable
define void @_ZN15VoipCallsDialog12rtpPlayerAddEv(ptr noundef nonnull align 8 dereferenceable(480) %0) #0 align 2 personality ptr @__gxx_personality_v0 {
  %2 = alloca ptr, align 8
  %3 = alloca %class.QList.8, align 8
  %4 = alloca %class.QList.12, align 8
  %5 = alloca ptr, align 8
  %6 = alloca i32, align 4
  store ptr %0, ptr %2, align 8
  %7 = load ptr, ptr %2, align 8
  %8 = getelementptr inbounds %class.VoipCallsDialog, ptr %7, i32 0, i32 2
  %9 = load ptr, ptr %8, align 8
  %10 = getelementptr inbounds %class.Ui_VoipCallsDialog, ptr %9, i32 0, i32 10
  %11 = load ptr, ptr %10, align 8
  %12 = call noundef ptr @_ZNK17QAbstractItemView14selectionModelEv(ptr noundef nonnull align 8 dereferenceable(40) %11)
  call void @_ZNK19QItemSelectionModel15selectedIndexesEv(ptr dead_on_unwind writable sret(%class.QList.8) align 8 %3, ptr noundef nonnull align 8 dereferenceable(16) %12)
  %13 = call noundef i64 @_ZNK5QListI11QModelIndexE5countEv(ptr noundef nonnull align 8 dereferenceable(24) %3) #17
  %14 = icmp slt i64 %13, 1
  call void @_ZN5QListI11QModelIndexED2Ev(ptr noundef nonnull align 8 dereferenceable(24) %3) #17
  br i1 %14, label %15, label %16

15:                                               ; preds = %1
  br label %18

16:                                               ; preds = %1
  call void @_ZN15VoipCallsDialog17getSelectedRtpIdsEv(ptr dead_on_unwind writable sret(%class.QList.12) align 8 %4, ptr noundef nonnull align 8 dereferenceable(480) %7)
  invoke void @_ZN15VoipCallsDialog28rtpPlayerDialogAddRtpStreamsE5QListIP13_rtpstream_idE(ptr noundef nonnull align 8 dereferenceable(480) %7, ptr noundef %4)
          to label %17 unwind label %19

17:                                               ; preds = %16
  call void @_ZN5QListIP13_rtpstream_idED2Ev(ptr noundef nonnull align 8 dereferenceable(24) %4) #17
  br label %18

18:                                               ; preds = %17, %15
  ret void

19:                                               ; preds = %16
  %20 = landingpad { ptr, i32 }
          cleanup
  %21 = extractvalue { ptr, i32 } %20, 0
  store ptr %21, ptr %5, align 8
  %22 = extractvalue { ptr, i32 } %20, 1
  store i32 %22, ptr %6, align 4
  call void @_ZN5QListIP13_rtpstream_idED2Ev(ptr noundef nonnull align 8 dereferenceable(24) %4) #17
  br label %23

23:                                               ; preds = %19
  %24 = load ptr, ptr %5, align 8
  %25 = load i32, ptr %6, align 4
  %26 = insertvalue { ptr, i32 } poison, ptr %24, 0
  %27 = insertvalue { ptr, i32 } %26, i32 %25, 1
  resume { ptr, i32 } %27
}